target datalayout = "e-m:e-p270:32:32-p271:32:32-p272:64:64-i64:64-i128:128-f80:128-n8:16:32:64-S128"
target triple = "x86_64-unknown-linux-gnu"

; Function Attrs: mustprogress nounwind uwtable
define internal noundef signext i8 @_ZL9U_FAILURE10UErrorCode(i32 noundef %code) #2 {
entry:
  %code.addr = alloca i32, align 4
  store i32 %code, ptr %code.addr, align 4
  %0 = load i32, ptr %code.addr, align 4
  %cmp = icmp sgt i32 %0, 0
  %conv = zext i1 %cmp to i8
  ret i8 %conv
}

; Function Attrs: mustprogress uwtable
define void @_ZNK6icu_7513BasicTimeZone18getOffsetFromLocalEd20UTimeZoneLocalOptionS1_RiS2_R10UErrorCode(ptr noundef nonnull align 8 dereferenceable(72) %this, double noundef %0, i32 noundef %1, i32 noundef %2, ptr noundef nonnull align 4 dereferenceable(4) %3, ptr noundef nonnull align 4 dereferenceable(4) %4, ptr noundef nonnull align 4 dereferenceable(4) %status) unnamed_addr #0 align 2 {
entry:
  %this.addr = alloca ptr, align 8
  %.addr = alloca double, align 8
  %.addr1 = alloca i32, align 4
  %.addr2 = alloca i32, align 4
  %.addr3 = alloca ptr, align 8
  %.addr4 = alloca ptr, align 8
  %status.addr = alloca ptr, align 8
  store ptr %this, ptr %this.addr, align 8
  store double %0, ptr %.addr, align 8
  store i32 %1, ptr %.addr1, align 4
  store i32 %2, ptr %.addr2, align 4
  store ptr %3, ptr %.addr3, align 8
  store ptr %4, ptr %.addr4, align 8
  store ptr %status, ptr %status.addr, align 8
  %5 = load ptr, ptr %status.addr, align 8
  %6 = load i32, ptr %5, align 4
  %call = call noundef signext i8 @_ZL9U_FAILURE10UErrorCode(i32 noundef %6)
  %tobool = icmp ne i8 %call, 0
  br i1 %tobool, label %if.then, label %if.end

if.then:                                          ; preds = %entry
  br label %return

if.end:                                           ; preds = %entry
  %7 = load ptr, ptr %status.addr, align 8
  store i32 16, ptr %7, align 4
  br label %return

return:                                           ; preds = %if.end, %if.then
  ret void
}