; Function Attrs: mustprogress nofree norecurse nosync nounwind willreturn memory(argmem: readwrite) uwtable
define void @_ZNK6icu_7513BasicTimeZone18getOffsetFromLocalEd20UTimeZoneLocalOptionS1_RiS2_R10UErrorCode(ptr nocapture nonnull readnone align 8 %this, double %0, i32 %1, i32 %2, ptr nocapture nonnull readnone align 4 %3, ptr nocapture nonnull readnone align 4 %4, ptr nocapture noundef nonnull align 4 dereferenceable(4) %status) unnamed_addr #8 align 2 {
entry:
  %5 = load i32, ptr %status, align 4
  %cmp.i = icmp slt i32 %5, 1
  br i1 %cmp.i, label %if.end, label %return

if.end:                                           ; preds = %entry
  store i32 16, ptr %status, align 4
  br label %return

return:                                           ; preds = %entry, %if.end
  ret void
}